target datalayout = "e-m:e-p270:32:32-p271:32:32-p272:64:64-i64:64-i128:128-f80:128-n8:16:32:64-S128"
target triple = "x86_64-pc-linux-gnu"

%struct.slurm_conf_t = type { i64, ptr, i16, ptr, ptr, ptr, ptr, ptr, i16, ptr, ptr, ptr, ptr, ptr, ptr, ptr, i16, ptr, ptr, ptr, ptr, i16, ptr, ptr, ptr, i64, ptr, ptr, ptr, ptr, i16, ptr, ptr, i16, i32, ptr, i32, ptr, i32, i32, ptr, ptr, i64, i64, ptr, i16, i16, ptr, i32, i32, ptr, i32, ptr, i32, i16, i16, i16, ptr, i16, i16, ptr, ptr, i32, i16, i16, ptr, i32, i16, ptr, ptr, ptr, ptr, i16, ptr, ptr, ptr, ptr, i32, ptr, ptr, ptr, ptr, i16, i16, ptr, i32, i32, i32, i16, i16, ptr, ptr, i16, ptr, ptr, i32, i32, i32, i32, i32, i64, i32, i32, i16, ptr, ptr, i32, ptr, ptr, ptr, i16, i32, ptr, ptr, i16, ptr, ptr, i32, i16, ptr, ptr, ptr, ptr, i32, i32, i16, i16, i32, ptr, i16, ptr, i32, i32, i32, i32, i32, i32, ptr, i16, ptr, ptr, i32, i16, ptr, i32, i16, i16, ptr, ptr, ptr, i16, ptr, ptr, ptr, ptr, i16, i16, ptr, i16, ptr, i16, ptr, i16, ptr, i16, ptr, ptr, ptr, ptr, i16, ptr, ptr, ptr, i32, ptr, i32, ptr, ptr, i16, ptr, ptr, i32, i16, ptr, ptr, i16, i16, ptr, i16, ptr, ptr, ptr, i32, ptr, i16, i16, ptr, ptr, ptr, ptr, ptr, ptr, ptr, ptr, i16, i32, i16, ptr, ptr, ptr, ptr, i32, ptr, ptr, ptr, i16, ptr, ptr, ptr, i16, ptr, i16, ptr, i16, i16, ptr }
%struct.log_options_t = type { i32, i32, i32, i8, i8, i8, i32 }

@log_opts = dso_local global { i32, i32, i32, i8, i8, i8, i8, i32 } { i32 3, i32 3, i32 3, i8 1, i8 0, i8 0, i8 0, i32 0 }, align 8
@sched_log_opts = dso_local global { i32, i32, i32, i8, i8, i8, i8, i32 } { i32 0, i32 0, i32 0, i8 0, i8 1, i8 0, i8 0, i32 0 }, align 8
@slurm_conf = external global %struct.slurm_conf_t, align 8
@daemonize = internal global i8 1, align 1
@debug_level = internal global i32 0, align 4
@debug_logfile = internal global ptr null, align 8
@.str.78 = private unnamed_addr constant [19 x i8] c"Log file re-opened\00", align 1
@.str.79 = private unnamed_addr constant [22 x i8] c"chown(%s, %u, %u): %m\00", align 1

; Function Attrs: nounwind uwtable
define dso_local void @update_logging() #0 {
  %1 = alloca i32, align 4
  %2 = alloca i32, align 4
  %3 = alloca i32, align 4
  call void @llvm.lifetime.start.p0(i64 4, ptr %1) #11
  call void @llvm.lifetime.start.p0(i64 4, ptr %2) #11
  %4 = load i32, ptr getelementptr inbounds nuw (%struct.slurm_conf_t, ptr @slurm_conf, i32 0, i32 173), align 8
  store i32 %4, ptr %2, align 4
  call void @llvm.lifetime.start.p0(i64 4, ptr %3) #11
  %5 = load i32, ptr %2, align 4
  %6 = call i32 @gid_from_uid(i32 noundef %5)
  store i32 %6, ptr %3, align 4
  %7 = load i32, ptr @debug_level, align 4
  %8 = icmp ne i32 %7, 0
  br i1 %8, label %9, label %20

9:                                                ; preds = %0
  %10 = load i32, ptr @debug_level, align 4
  %11 = add nsw i32 3, %10
  %12 = icmp slt i32 %11, 9
  br i1 %12, label %13, label %16

13:                                               ; preds = %9
  %14 = load i32, ptr @debug_level, align 4
  %15 = add nsw i32 3, %14
  br label %17

16:                                               ; preds = %9
  br label %17

17:                                               ; preds = %16, %13
  %18 = phi i32 [ %15, %13 ], [ 9, %16 ]
  %19 = trunc i32 %18 to i16
  store i16 %19, ptr getelementptr inbounds nuw (%struct.slurm_conf_t, ptr @slurm_conf, i32 0, i32 178), align 8
  br label %20

20:                                               ; preds = %17, %0
  %21 = load i16, ptr getelementptr inbounds nuw (%struct.slurm_conf_t, ptr @slurm_conf, i32 0, i32 178), align 8
  %22 = zext i16 %21 to i32
  %23 = icmp ne i32 %22, 65534
  br i1 %23, label %24, label %27

24:                                               ; preds = %20
  %25 = load i16, ptr getelementptr inbounds nuw (%struct.slurm_conf_t, ptr @slurm_conf, i32 0, i32 178), align 8
  %26 = zext i16 %25 to i32
  store i32 %26, ptr getelementptr inbounds nuw (%struct.log_options_t, ptr @log_opts, i32 0, i32 2), align 4
  br label %27

27:                                               ; preds = %24, %20
  %28 = load ptr, ptr @debug_logfile, align 8
  %29 = icmp ne ptr %28, null
  br i1 %29, label %30, label %33

30:                                               ; preds = %27
  call void @slurm_xfree(ptr noundef getelementptr inbounds nuw (%struct.slurm_conf_t, ptr @slurm_conf, i32 0, i32 179))
  %31 = load ptr, ptr @debug_logfile, align 8
  %32 = call ptr @xstrdup(ptr noundef %31)
  store ptr %32, ptr getelementptr inbounds nuw (%struct.slurm_conf_t, ptr @slurm_conf, i32 0, i32 179), align 8
  br label %33

33:                                               ; preds = %30, %27
  %34 = load i16, ptr getelementptr inbounds nuw (%struct.slurm_conf_t, ptr @slurm_conf, i32 0, i32 92), align 8
  %35 = zext i16 %34 to i32
  call void @log_set_timefmt(i32 noundef %35)
  %36 = load i16, ptr getelementptr inbounds nuw (%struct.slurm_conf_t, ptr @slurm_conf, i32 0, i32 178), align 8
  %37 = zext i16 %36 to i32
  %38 = load i16, ptr getelementptr inbounds nuw (%struct.slurm_conf_t, ptr @slurm_conf, i32 0, i32 185), align 8
  %39 = zext i16 %38 to i32
  call void @update_log_levels(i32 noundef %37, i32 noundef %39)
  br label %40

40:                                               ; preds = %33
  br label %41

41:                                               ; preds = %40
  %42 = call i32 @get_log_level()
  %43 = icmp sge i32 %42, 5
  br i1 %43, label %44, label %45

44:                                               ; preds = %41
  call void (i32, ptr, ...) @log_var(i32 noundef 5, ptr noundef @.str.78)
  br label %45

45:                                               ; preds = %44, %41
  br label %46

46:                                               ; preds = %45
  br label %47

47:                                               ; preds = %46
  br label %48

48:                                               ; preds = %47
  br label %49

49:                                               ; preds = %48
  %50 = load i16, ptr getelementptr inbounds nuw (%struct.slurm_conf_t, ptr @slurm_conf, i32 0, i32 162), align 8
  %51 = zext i16 %50 to i32
  %52 = icmp ne i32 %51, 65534
  br i1 %52, label %53, label %56

53:                                               ; preds = %49
  %54 = load i16, ptr getelementptr inbounds nuw (%struct.slurm_conf_t, ptr @slurm_conf, i32 0, i32 162), align 8
  %55 = zext i16 %54 to i32
  store i32 %55, ptr getelementptr inbounds nuw (%struct.log_options_t, ptr @sched_log_opts, i32 0, i32 2), align 4
  br label %56

56:                                               ; preds = %53, %49
  %57 = load ptr, ptr getelementptr inbounds nuw (%struct.slurm_conf_t, ptr @slurm_conf, i32 0, i32 161), align 8
  %58 = call i32 @sched_log_alter(ptr noundef byval(%struct.log_options_t) align 8 @sched_log_opts, i32 noundef 24, ptr noundef %57)
  %59 = load ptr, ptr getelementptr inbounds nuw (%struct.slurm_conf_t, ptr @slurm_conf, i32 0, i32 179), align 8
  %60 = icmp ne ptr %59, null
  br i1 %60, label %61, label %77

61:                                               ; preds = %56
  %62 = load ptr, ptr getelementptr inbounds nuw (%struct.slurm_conf_t, ptr @slurm_conf, i32 0, i32 179), align 8
  %63 = load i32, ptr %2, align 4
  %64 = load i32, ptr %3, align 4
  %65 = call i32 @chown(ptr noundef %62, i32 noundef %63, i32 noundef %64) #11
  store i32 %65, ptr %1, align 4
  %66 = load i32, ptr %1, align 4
  %67 = icmp ne i32 %66, 0
  br i1 %67, label %68, label %76

68:                                               ; preds = %61
  %69 = load i8, ptr @daemonize, align 1, !range !8, !noundef !9
  %70 = trunc i8 %69 to i1
  br i1 %70, label %71, label %76

71:                                               ; preds = %68
  %72 = load ptr, ptr getelementptr inbounds nuw (%struct.slurm_conf_t, ptr @slurm_conf, i32 0, i32 179), align 8
  %73 = load i32, ptr %2, align 4
  %74 = load i32, ptr %3, align 4
  %75 = call i32 (ptr, ...) @error(ptr noundef @.str.79, ptr noundef %72, i32 noundef %73, i32 noundef %74)
  br label %76

76:                                               ; preds = %71, %68, %61
  br label %77

77:                                               ; preds = %76, %56
  %78 = load ptr, ptr getelementptr inbounds nuw (%struct.slurm_conf_t, ptr @slurm_conf, i32 0, i32 161), align 8
  %79 = icmp ne ptr %78, null
  br i1 %79, label %80, label %96

80:                                               ; preds = %77
  %81 = load ptr, ptr getelementptr inbounds nuw (%struct.slurm_conf_t, ptr @slurm_conf, i32 0, i32 161), align 8
  %82 = load i32, ptr %2, align 4
  %83 = load i32, ptr %3, align 4
  %84 = call i32 @chown(ptr noundef %81, i32 noundef %82, i32 noundef %83) #11
  store i32 %84, ptr %1, align 4
  %85 = load i32, ptr %1, align 4
  %86 = icmp ne i32 %85, 0
  br i1 %86, label %87, label %95

87:                                               ; preds = %80
  %88 = load i8, ptr @daemonize, align 1, !range !8, !noundef !9
  %89 = trunc i8 %88 to i1
  br i1 %89, label %90, label %95

90:                                               ; preds = %87
  %91 = load ptr, ptr getelementptr inbounds nuw (%struct.slurm_conf_t, ptr @slurm_conf, i32 0, i32 161), align 8
  %92 = load i32, ptr %2, align 4
  %93 = load i32, ptr %3, align 4
  %94 = call i32 (ptr, ...) @error(ptr noundef @.str.79, ptr noundef %91, i32 noundef %92, i32 noundef %93)
  br label %95

95:                                               ; preds = %90, %87, %80
  br label %96

96:                                               ; preds = %95, %77
  call void @llvm.lifetime.end.p0(i64 4, ptr %3) #11
  call void @llvm.lifetime.end.p0(i64 4, ptr %2) #11
  call void @llvm.lifetime.end.p0(i64 4, ptr %1) #11
  ret void
}