; Function Attrs: nounwind uwtable
define dso_local void @update_logging() local_unnamed_addr #6 {
  %1 = load i32, ptr getelementptr inbounds nuw (i8, ptr @slurm_conf, i64 1152), align 8
  %2 = tail call i32 @gid_from_uid(i32 noundef %1) #19
  %3 = load i32, ptr @debug_level, align 4
  %.not = icmp eq i32 %3, 0
  br i1 %.not, label %thread-pre-split, label %4

4:                                                ; preds = %0
  %5 = tail call i32 @llvm.smin.i32(i32 %3, i32 6)
  %6 = trunc i32 %5 to i16
  %7 = add i16 %6, 3
  store i16 %7, ptr getelementptr inbounds nuw (i8, ptr @slurm_conf, i64 1192), align 8
  br label %8

thread-pre-split:                                 ; preds = %0
  %.pr = load i16, ptr getelementptr inbounds nuw (i8, ptr @slurm_conf, i64 1192), align 8
  br label %8

8:                                                ; preds = %thread-pre-split, %4
  %9 = phi i16 [ %.pr, %thread-pre-split ], [ %7, %4 ]
  %.not16 = icmp eq i16 %9, -2
  br i1 %.not16, label %12, label %10

10:                                               ; preds = %8
  %11 = zext i16 %9 to i32
  store i32 %11, ptr getelementptr inbounds nuw (i8, ptr @log_opts, i64 8), align 8
  br label %12

12:                                               ; preds = %10, %8
  %13 = load ptr, ptr @debug_logfile, align 8
  %.not17 = icmp eq ptr %13, null
  br i1 %.not17, label %17, label %14

14:                                               ; preds = %12
  tail call void @slurm_xfree(ptr noundef nonnull getelementptr inbounds nuw (i8, ptr @slurm_conf, i64 1200)) #19
  %15 = load ptr, ptr @debug_logfile, align 8
  %16 = tail call ptr @xstrdup(ptr noundef %15) #19
  store ptr %16, ptr getelementptr inbounds nuw (i8, ptr @slurm_conf, i64 1200), align 8
  br label %17

17:                                               ; preds = %14, %12
  %18 = load i16, ptr getelementptr inbounds nuw (i8, ptr @slurm_conf, i64 624), align 8
  %19 = zext i16 %18 to i32
  tail call void @log_set_timefmt(i32 noundef %19) #19
  %20 = load i16, ptr getelementptr inbounds nuw (i8, ptr @slurm_conf, i64 1192), align 8
  %21 = zext i16 %20 to i32
  %22 = load i16, ptr getelementptr inbounds nuw (i8, ptr @slurm_conf, i64 1240), align 8
  %23 = zext i16 %22 to i32
  tail call void @update_log_levels(i32 noundef %21, i32 noundef %23)
  %24 = tail call i32 @get_log_level() #19
  %25 = icmp sgt i32 %24, 4
  br i1 %25, label %26, label %27

26:                                               ; preds = %17
  tail call void (i32, ptr, ...) @log_var(i32 noundef 5, ptr noundef nonnull @.str.78) #19
  br label %27

27:                                               ; preds = %26, %17
  %28 = load i16, ptr getelementptr inbounds nuw (i8, ptr @slurm_conf, i64 1064), align 8
  %.not18 = icmp eq i16 %28, -2
  br i1 %.not18, label %31, label %29

29:                                               ; preds = %27
  %30 = zext i16 %28 to i32
  store i32 %30, ptr getelementptr inbounds nuw (i8, ptr @sched_log_opts, i64 8), align 8
  br label %31

31:                                               ; preds = %29, %27
  %32 = load ptr, ptr getelementptr inbounds nuw (i8, ptr @slurm_conf, i64 1056), align 8
  %33 = tail call i32 @sched_log_alter(ptr noundef nonnull byval(%struct.log_options_t) align 8 @sched_log_opts, i32 noundef 24, ptr noundef %32) #19
  %34 = load ptr, ptr getelementptr inbounds nuw (i8, ptr @slurm_conf, i64 1200), align 8
  %.not19 = icmp eq ptr %34, null
  br i1 %.not19, label %41, label %35

35:                                               ; preds = %31
  %36 = tail call i32 @chown(ptr noundef nonnull %34, i32 noundef %1, i32 noundef %2) #19
  %.not20 = icmp eq i32 %36, 0
  br i1 %.not20, label %41, label %37

37:                                               ; preds = %35
  %.b15 = load i1, ptr @daemonize, align 1
  br i1 %.b15, label %41, label %38

38:                                               ; preds = %37
  %39 = load ptr, ptr getelementptr inbounds nuw (i8, ptr @slurm_conf, i64 1200), align 8
  %40 = tail call i32 (ptr, ...) @error(ptr noundef nonnull @.str.79, ptr noundef %39, i32 noundef %1, i32 noundef %2) #19
  br label %41

41:                                               ; preds = %35, %37, %38, %31
  %42 = load ptr, ptr getelementptr inbounds nuw (i8, ptr @slurm_conf, i64 1056), align 8
  %.not21 = icmp eq ptr %42, null
  br i1 %.not21, label %49, label %43

43:                                               ; preds = %41
  %44 = tail call i32 @chown(ptr noundef nonnull %42, i32 noundef %1, i32 noundef %2) #19
  %.not22 = icmp eq i32 %44, 0
  br i1 %.not22, label %49, label %45

45:                                               ; preds = %43
  %.b = load i1, ptr @daemonize, align 1
  br i1 %.b, label %49, label %46

46:                                               ; preds = %45
  %47 = load ptr, ptr getelementptr inbounds nuw (i8, ptr @slurm_conf, i64 1056), align 8
  %48 = tail call i32 (ptr, ...) @error(ptr noundef nonnull @.str.79, ptr noundef %47, i32 noundef %1, i32 noundef %2) #19
  br label %49

49:                                               ; preds = %43, %45, %46, %41
  ret void
}